target datalayout = "e-m:e-p270:32:32-p271:32:32-p272:64:64-i64:64-i128:128-f80:128-n8:16:32:64-S128"
target triple = "x86_64-pc-linux-gnu"

%class.Node = type <{ ptr, ptr, ptr, i32, i32, i32, i32, i32, i32, i32, [4 x i8] }>

; Function Attrs: mustprogress nounwind uwtable
define linkonce_odr hidden noundef zeroext i1 @_ZNK4Node12is_ArrayCopyEv(ptr noundef nonnull align 8 dereferenceable(52) %0) #1 comdat align 2 {
  %2 = alloca ptr, align 8
  store ptr %0, ptr %2, align 8
  %3 = load ptr, ptr %2, align 8
  %4 = getelementptr inbounds %class.Node, ptr %3, i32 0, i32 8
  %5 = load i32, ptr %4, align 4
  %6 = and i32 %5, 255
  %7 = icmp eq i32 %6, 135
  ret i1 %7
}

; Function Attrs: mustprogress nounwind uwtable
define linkonce_odr hidden noundef ptr @_ZNK4Node7as_CallEv(ptr noundef nonnull align 8 dereferenceable(52) %0) #1 comdat align 2 {
  %2 = alloca ptr, align 8
  store ptr %0, ptr %2, align 8
  %3 = load ptr, ptr %2, align 8
  ret ptr %3
}

; Function Attrs: mustprogress nounwind uwtable
define linkonce_odr hidden noundef zeroext i1 @_ZNK4Node7is_CallEv(ptr noundef nonnull align 8 dereferenceable(52) %0) #1 comdat align 2 {
  %2 = alloca ptr, align 8
  store ptr %0, ptr %2, align 8
  %3 = load ptr, ptr %2, align 8
  %4 = getelementptr inbounds %class.Node, ptr %3, i32 0, i32 8
  %5 = load i32, ptr %4, align 4
  %6 = and i32 %5, 7
  %7 = icmp eq i32 %6, 7
  ret i1 %7
}

; Function Attrs: mustprogress nounwind uwtable
define hidden noundef zeroext i1 @_ZN13ArrayCopyNode17may_modify_helperEPK10TypeOopPtrP4NodeP11PhaseValuesRP8CallNode(ptr noundef %0, ptr noundef %1, ptr noundef %2, ptr noundef nonnull align 8 dereferenceable(8) %3) #1 align 2 {
  %5 = alloca i1, align 1
  %6 = alloca ptr, align 8
  %7 = alloca ptr, align 8
  %8 = alloca ptr, align 8
  %9 = alloca ptr, align 8
  store ptr %0, ptr %6, align 8
  store ptr %1, ptr %7, align 8
  store ptr %2, ptr %8, align 8
  store ptr %3, ptr %9, align 8
  %10 = load ptr, ptr %7, align 8
  %11 = icmp ne ptr %10, null
  br i1 %11, label %12, label %36

12:                                               ; preds = %4
  %13 = load ptr, ptr %7, align 8
  %14 = call noundef zeroext i1 @_ZNK4Node7is_CallEv(ptr noundef nonnull align 8 dereferenceable(52) %13)
  br i1 %14, label %15, label %36

15:                                               ; preds = %12
  %16 = load ptr, ptr %7, align 8
  %17 = call noundef ptr @_ZNK4Node7as_CallEv(ptr noundef nonnull align 8 dereferenceable(52) %16)
  %18 = load ptr, ptr %6, align 8
  %19 = load ptr, ptr %8, align 8
  %20 = load ptr, ptr %17, align 8
  %21 = getelementptr inbounds ptr, ptr %20, i64 28
  %22 = load ptr, ptr %21, align 8
  %23 = call noundef zeroext i1 %22(ptr noundef nonnull align 8 dereferenceable(128) %17, ptr noundef %18, ptr noundef %19)
  br i1 %23, label %24, label %36

24:                                               ; preds = %15
  %25 = load ptr, ptr %7, align 8
  %26 = call noundef ptr @_ZNK4Node7as_CallEv(ptr noundef nonnull align 8 dereferenceable(52) %25)
  %27 = call noundef zeroext i1 @_ZNK4Node12is_ArrayCopyEv(ptr noundef nonnull align 8 dereferenceable(52) %26)
  br i1 %27, label %32, label %28

28:                                               ; preds = %24
  %29 = load ptr, ptr %7, align 8
  %30 = call noundef ptr @_ZNK4Node7as_CallEv(ptr noundef nonnull align 8 dereferenceable(52) %29)
  %31 = call noundef zeroext i1 @_ZNK8CallNode24is_call_to_arraycopystubEv(ptr noundef nonnull align 8 dereferenceable(128) %30)
  br i1 %31, label %32, label %36

32:                                               ; preds = %28, %24
  %33 = load ptr, ptr %7, align 8
  %34 = call noundef ptr @_ZNK4Node7as_CallEv(ptr noundef nonnull align 8 dereferenceable(52) %33)
  %35 = load ptr, ptr %9, align 8
  store ptr %34, ptr %35, align 8
  store i1 true, ptr %5, align 1
  br label %37

36:                                               ; preds = %28, %15, %12, %4
  store i1 false, ptr %5, align 1
  br label %37

37:                                               ; preds = %36, %32
  %38 = load i1, ptr %5, align 1
  ret i1 %38
}