; Function Attrs: mustprogress nounwind uwtable
define hidden noundef zeroext i1 @_ZN13ArrayCopyNode17may_modify_helperEPK10TypeOopPtrP4NodeP11PhaseValuesRP8CallNode(ptr noundef %0, ptr noundef %1, ptr noundef %2, ptr nocapture noundef nonnull writeonly align 8 dereferenceable(8) %3) local_unnamed_addr #0 align 2 {
  %.not = icmp eq ptr %1, null
  br i1 %.not, label %22, label %5

5:                                                ; preds = %4
  %6 = getelementptr inbounds i8, ptr %1, i64 44
  %7 = load i32, ptr %6, align 4
  %8 = and i32 %7, 7
  %9 = icmp eq i32 %8, 7
  br i1 %9, label %10, label %22

10:                                               ; preds = %5
  %11 = load ptr, ptr %1, align 8
  %12 = getelementptr inbounds i8, ptr %11, i64 224
  %13 = load ptr, ptr %12, align 8
  %14 = tail call noundef zeroext i1 %13(ptr noundef nonnull align 8 dereferenceable(128) %1, ptr noundef %0, ptr noundef %2) #10
  br i1 %14, label %15, label %22

15:                                               ; preds = %10
  %16 = load i32, ptr %6, align 4
  %17 = and i32 %16, 255
  %18 = icmp eq i32 %17, 135
  br i1 %18, label %21, label %19

19:                                               ; preds = %15
  %20 = tail call noundef zeroext i1 @_ZNK8CallNode24is_call_to_arraycopystubEv(ptr noundef nonnull align 8 dereferenceable(128) %1) #10
  br i1 %20, label %21, label %22

21:                                               ; preds = %19, %15
  store ptr %1, ptr %3, align 8
  br label %22

22:                                               ; preds = %4, %5, %10, %19, %21
  %.0 = phi i1 [ true, %21 ], [ false, %19 ], [ false, %10 ], [ false, %5 ], [ false, %4 ]
  ret i1 %.0
}